; Function Attrs: mustprogress uwtable
define hidden void @_ZN14duckdb_mbedtls14MbedTlsWrapper11SHA256State8FinalizeB5cxx11Ev(ptr dead_on_unwind noalias nonnull writable sret(%"class.std::__cxx11::basic_string") align 8 %0, ptr noundef nonnull readonly align 8 captures(none) dereferenceable(8) %1) local_unnamed_addr #0 align 2 personality ptr @__gxx_personality_v0 {
  %3 = load ptr, ptr %1, align 8, !tbaa !18
  %4 = getelementptr inbounds nuw i8, ptr %0, i64 16
  store ptr %4, ptr %0, align 8, !tbaa !3
  %5 = getelementptr inbounds nuw i8, ptr %0, i64 8
  store i64 0, ptr %5, align 8, !tbaa !9
  store i8 0, ptr %4, align 8, !tbaa !12
  invoke void @_ZNSt7__cxx1112basic_stringIcSt11char_traitsIcESaIcEE6resizeEmc(ptr noundef nonnull align 8 dereferenceable(32) %0, i64 noundef 32, i8 noundef signext 0)
          to label %_ZNSt7__cxx1112basic_stringIcSt11char_traitsIcESaIcEE6resizeEm.exit unwind label %12

_ZNSt7__cxx1112basic_stringIcSt11char_traitsIcESaIcEE6resizeEm.exit: ; preds = %2
  %6 = load ptr, ptr %0, align 8, !tbaa !13
  %7 = invoke i32 @mbedtls_sha256_finish(ptr noundef %3, ptr noundef %6)
          to label %8 unwind label %12

8:                                                ; preds = %_ZNSt7__cxx1112basic_stringIcSt11char_traitsIcESaIcEE6resizeEm.exit
  %.not = icmp eq i32 %7, 0
  br i1 %.not, label %16, label %9

9:                                                ; preds = %8
  %10 = tail call ptr @__cxa_allocate_exception(i64 16) #19
  invoke void @_ZNSt13runtime_errorC1EPKc(ptr noundef nonnull align 8 dereferenceable(16) %10, ptr noundef nonnull @.str)
          to label %11 unwind label %14

11:                                               ; preds = %9
  invoke void @__cxa_throw(ptr nonnull %10, ptr nonnull @_ZTISt13runtime_error, ptr nonnull @_ZNSt13runtime_errorD1Ev) #20
          to label %22 unwind label %12

12:                                               ; preds = %2, %11, %_ZNSt7__cxx1112basic_stringIcSt11char_traitsIcESaIcEE6resizeEm.exit
  %13 = landingpad { ptr, i32 }
          cleanup
  br label %17

14:                                               ; preds = %9
  %15 = landingpad { ptr, i32 }
          cleanup
  tail call void @__cxa_free_exception(ptr nonnull %10) #19
  br label %17

16:                                               ; preds = %8
  ret void

17:                                               ; preds = %14, %12
  %.pn = phi { ptr, i32 } [ %13, %12 ], [ %15, %14 ]
  %18 = load ptr, ptr %0, align 8, !tbaa !13
  %19 = icmp eq ptr %18, %4
  br i1 %19, label %_ZNKSt7__cxx1112basic_stringIcSt11char_traitsIcESaIcEE11_M_is_localEv.exit.thread.i.i, label %_ZNKSt7__cxx1112basic_stringIcSt11char_traitsIcESaIcEE11_M_is_localEv.exit.i.i

_ZNKSt7__cxx1112basic_stringIcSt11char_traitsIcESaIcEE11_M_is_localEv.exit.thread.i.i: ; preds = %17
  %20 = load i64, ptr %5, align 8, !tbaa !9
  %21 = icmp ult i64 %20, 16
  tail call void @llvm.assume(i1 %21)
  br label %_ZNSt7__cxx1112basic_stringIcSt11char_traitsIcESaIcEED2Ev.exit

_ZNKSt7__cxx1112basic_stringIcSt11char_traitsIcESaIcEE11_M_is_localEv.exit.i.i: ; preds = %17
  tail call void @_ZdlPv(ptr noundef %18) #21
  br label %_ZNSt7__cxx1112basic_stringIcSt11char_traitsIcESaIcEED2Ev.exit

_ZNSt7__cxx1112basic_stringIcSt11char_traitsIcESaIcEED2Ev.exit: ; preds = %_ZNKSt7__cxx1112basic_stringIcSt11char_traitsIcESaIcEE11_M_is_localEv.exit.thread.i.i, %_ZNKSt7__cxx1112basic_stringIcSt11char_traitsIcESaIcEE11_M_is_localEv.exit.i.i
  resume { ptr, i32 } %.pn

22:                                               ; preds = %11
  unreachable
}